; Function Attrs: mustprogress uwtable
define hidden noundef range(i64 0, -9223372036854775808) i64 @_ZN3fmt3v1111getpagesizeEv() local_unnamed_addr #6 personality ptr @__gxx_personality_v0 {
  %1 = alloca %"struct.fmt::v11::detail::format_arg_store.99", align 16
  %2 = tail call i64 @sysconf(i32 noundef 30) #29
  %.b3.i = load i1, ptr @_ZN12_GLOBAL__N_113sysconf_errorE, align 1
  br i1 %.b3.i, label %_ZN4test7sysconfEi.exit.thread, label %_ZN4test7sysconfEi.exit

_ZN4test7sysconfEi.exit.thread:                   ; preds = %0
  %3 = tail call ptr @__errno_location() #28
  store i32 22, ptr %3, align 4, !tbaa !10
  br label %5

_ZN4test7sysconfEi.exit:                          ; preds = %0
  %4 = icmp slt i64 %2, 0
  br i1 %4, label %5, label %12

5:                                                ; preds = %_ZN4test7sysconfEi.exit, %_ZN4test7sysconfEi.exit.thread
  %6 = tail call ptr @__cxa_allocate_exception(i64 32) #29
  %7 = tail call ptr @__errno_location() #28
  %8 = load i32, ptr %7, align 4, !tbaa !10
  call void @llvm.lifetime.start.p0(i64 16, ptr nonnull %1) #29, !noalias !64
  invoke void @_ZN3fmt3v1113vsystem_errorEiNS0_17basic_string_viewIcEENS0_17basic_format_argsINS0_7contextEEE(ptr dead_on_unwind writable sret(%"class.std::system_error") align 8 %6, i32 noundef %8, ptr nonnull @.str.9, i64 27, i64 0, ptr nonnull %1)
          to label %9 unwind label %10

9:                                                ; preds = %5
  call void @llvm.lifetime.end.p0(i64 16, ptr nonnull %1) #29, !noalias !64
  call void @__cxa_throw(ptr %6, ptr nonnull @_ZTISt12system_error, ptr nonnull @_ZNSt12system_errorD1Ev) #31
  unreachable

10:                                               ; preds = %5
  %11 = landingpad { ptr, i32 }
          cleanup
  call void @__cxa_free_exception(ptr %6) #29
  resume { ptr, i32 } %11

12:                                               ; preds = %_ZN4test7sysconfEi.exit
  ret i64 %2
}